target datalayout = "e-m:e-p270:32:32-p271:32:32-p272:64:64-i64:64-i128:128-f80:128-n8:16:32:64-S128"
target triple = "x86_64-pc-linux-gnu"

%struct._object = type { %union.anon, ptr }
%union.anon = type { i64 }
%struct.anon = type { i32, i32 }
%struct.tagCDataObject = type { %struct._object, ptr, i32, ptr, i64, i64, i64, ptr, %union.value }
%union.value = type { x86_fp80 }

; Function Attrs: alwaysinline nounwind uwtable
define internal i32 @_Py_IsImmortal(ptr noundef %0) #4 {
  %2 = alloca ptr, align 8
  store ptr %0, ptr %2, align 8, !tbaa !7
  %3 = load ptr, ptr %2, align 8, !tbaa !7
  %4 = getelementptr inbounds nuw %struct._object, ptr %3, i32 0, i32 0
  %5 = getelementptr inbounds nuw %struct.anon, ptr %4, i32 0, i32 0
  %6 = load i32, ptr %5, align 8, !tbaa !20
  %7 = icmp slt i32 %6, 0
  %8 = zext i1 %7 to i32
  ret i32 %8
}

; Function Attrs: alwaysinline nounwind uwtable
define internal void @Py_DECREF(ptr noundef %0) #4 {
  %2 = alloca ptr, align 8
  store ptr %0, ptr %2, align 8, !tbaa !7
  %3 = load ptr, ptr %2, align 8, !tbaa !7
  %4 = call i32 @_Py_IsImmortal(ptr noundef %3)
  %5 = icmp ne i32 %4, 0
  br i1 %5, label %6, label %7

6:                                                ; preds = %1
  br label %16

7:                                                ; preds = %1
  %8 = load ptr, ptr %2, align 8, !tbaa !7
  %9 = getelementptr inbounds nuw %struct._object, ptr %8, i32 0, i32 0
  %10 = getelementptr inbounds nuw %struct.anon, ptr %9, i32 0, i32 0
  %11 = load i32, ptr %10, align 8, !tbaa !20
  %12 = add i32 %11, -1
  store i32 %12, ptr %10, align 8, !tbaa !20
  %13 = icmp eq i32 %12, 0
  br i1 %13, label %14, label %16

14:                                               ; preds = %7
  %15 = load ptr, ptr %2, align 8, !tbaa !7
  call void @_Py_Dealloc(ptr noundef %15)
  br label %16

16:                                               ; preds = %6, %14, %7
  ret void
}

; Function Attrs: nounwind uwtable
define internal i32 @PyCData_clear(ptr noundef %0) #0 {
  %2 = alloca ptr, align 8
  %3 = alloca ptr, align 8
  %4 = alloca ptr, align 8
  %5 = alloca ptr, align 8
  %6 = alloca ptr, align 8
  %7 = alloca ptr, align 8
  store ptr %0, ptr %2, align 8, !tbaa !7
  call void @llvm.lifetime.start.p0(i64 8, ptr %3) #9
  %8 = load ptr, ptr %2, align 8, !tbaa !7
  store ptr %8, ptr %3, align 8, !tbaa !39
  br label %9

9:                                                ; preds = %1
  call void @llvm.lifetime.start.p0(i64 8, ptr %4) #9
  %10 = load ptr, ptr %3, align 8, !tbaa !39
  %11 = getelementptr inbounds nuw %struct.tagCDataObject, ptr %10, i32 0, i32 7
  store ptr %11, ptr %4, align 8, !tbaa !21
  call void @llvm.lifetime.start.p0(i64 8, ptr %5) #9
  %12 = load ptr, ptr %4, align 8, !tbaa !21
  %13 = load ptr, ptr %12, align 8, !tbaa !7
  store ptr %13, ptr %5, align 8, !tbaa !7
  %14 = load ptr, ptr %5, align 8, !tbaa !7
  %15 = icmp ne ptr %14, null
  br i1 %15, label %16, label %19

16:                                               ; preds = %9
  %17 = load ptr, ptr %4, align 8, !tbaa !21
  store ptr null, ptr %17, align 8, !tbaa !7
  %18 = load ptr, ptr %5, align 8, !tbaa !7
  call void @Py_DECREF(ptr noundef %18)
  br label %19

19:                                               ; preds = %16, %9
  call void @llvm.lifetime.end.p0(i64 8, ptr %5) #9
  call void @llvm.lifetime.end.p0(i64 8, ptr %4) #9
  br label %20

20:                                               ; preds = %19
  br label %21

21:                                               ; preds = %20
  %22 = load ptr, ptr %3, align 8, !tbaa !39
  %23 = getelementptr inbounds nuw %struct.tagCDataObject, ptr %22, i32 0, i32 2
  %24 = load i32, ptr %23, align 8, !tbaa !47
  %25 = icmp ne i32 %24, 0
  br i1 %25, label %26, label %37

26:                                               ; preds = %21
  %27 = load ptr, ptr %3, align 8, !tbaa !39
  %28 = getelementptr inbounds nuw %struct.tagCDataObject, ptr %27, i32 0, i32 1
  %29 = load ptr, ptr %28, align 16, !tbaa !46
  %30 = load ptr, ptr %3, align 8, !tbaa !39
  %31 = getelementptr inbounds nuw %struct.tagCDataObject, ptr %30, i32 0, i32 8
  %32 = icmp ne ptr %29, %31
  br i1 %32, label %33, label %37

33:                                               ; preds = %26
  %34 = load ptr, ptr %3, align 8, !tbaa !39
  %35 = getelementptr inbounds nuw %struct.tagCDataObject, ptr %34, i32 0, i32 1
  %36 = load ptr, ptr %35, align 16, !tbaa !46
  call void @PyMem_Free(ptr noundef %36)
  br label %37

37:                                               ; preds = %33, %26, %21
  %38 = load ptr, ptr %3, align 8, !tbaa !39
  %39 = getelementptr inbounds nuw %struct.tagCDataObject, ptr %38, i32 0, i32 1
  store ptr null, ptr %39, align 16, !tbaa !46
  br label %40

40:                                               ; preds = %37
  call void @llvm.lifetime.start.p0(i64 8, ptr %6) #9
  %41 = load ptr, ptr %3, align 8, !tbaa !39
  %42 = getelementptr inbounds nuw %struct.tagCDataObject, ptr %41, i32 0, i32 3
  store ptr %42, ptr %6, align 8, !tbaa !120
  call void @llvm.lifetime.start.p0(i64 8, ptr %7) #9
  %43 = load ptr, ptr %6, align 8, !tbaa !120
  %44 = load ptr, ptr %43, align 8, !tbaa !39
  store ptr %44, ptr %7, align 8, !tbaa !39
  %45 = load ptr, ptr %7, align 8, !tbaa !39
  %46 = icmp ne ptr %45, null
  br i1 %46, label %47, label %50

47:                                               ; preds = %40
  %48 = load ptr, ptr %6, align 8, !tbaa !120
  store ptr null, ptr %48, align 8, !tbaa !39
  %49 = load ptr, ptr %7, align 8, !tbaa !39
  call void @Py_DECREF(ptr noundef %49)
  br label %50

50:                                               ; preds = %47, %40
  call void @llvm.lifetime.end.p0(i64 8, ptr %7) #9
  call void @llvm.lifetime.end.p0(i64 8, ptr %6) #9
  br label %51

51:                                               ; preds = %50
  br label %52

52:                                               ; preds = %51
  call void @llvm.lifetime.end.p0(i64 8, ptr %3) #9
  ret i32 0
}