; Function Attrs: nounwind uwtable
define internal noundef i32 @PyCData_clear(ptr noundef %0) #0 {
  %2 = getelementptr inbounds nuw i8, ptr %0, i64 64
  %3 = load ptr, ptr %2, align 8, !tbaa !27
  %.not = icmp eq ptr %3, null
  br i1 %.not, label %Py_DECREF.exit22, label %4

4:                                                ; preds = %1
  store ptr null, ptr %2, align 8, !tbaa !27
  %5 = load i32, ptr %3, align 8, !tbaa !23
  %.not.i21 = icmp sgt i32 %5, -1
  br i1 %.not.i21, label %6, label %Py_DECREF.exit22

6:                                                ; preds = %4
  %7 = add nsw i32 %5, -1
  store i32 %7, ptr %3, align 8, !tbaa !23
  %8 = icmp eq i32 %7, 0
  br i1 %8, label %9, label %Py_DECREF.exit22

9:                                                ; preds = %6
  tail call void @_Py_Dealloc(ptr noundef nonnull %3) #17
  br label %Py_DECREF.exit22

Py_DECREF.exit22:                                 ; preds = %9, %6, %4, %1
  %10 = getelementptr inbounds nuw i8, ptr %0, i64 24
  %11 = load i32, ptr %10, align 8, !tbaa !43
  %.not18 = icmp eq i32 %11, 0
  br i1 %.not18, label %17, label %12

12:                                               ; preds = %Py_DECREF.exit22
  %13 = getelementptr inbounds nuw i8, ptr %0, i64 16
  %14 = load ptr, ptr %13, align 16, !tbaa !42
  %15 = getelementptr inbounds nuw i8, ptr %0, i64 80
  %.not19 = icmp eq ptr %14, %15
  br i1 %.not19, label %17, label %16

16:                                               ; preds = %12
  tail call void @PyMem_Free(ptr noundef %14) #17
  br label %17

17:                                               ; preds = %16, %12, %Py_DECREF.exit22
  %18 = getelementptr inbounds nuw i8, ptr %0, i64 16
  store ptr null, ptr %18, align 16, !tbaa !42
  %19 = getelementptr inbounds nuw i8, ptr %0, i64 32
  %20 = load ptr, ptr %19, align 8, !tbaa !107
  %.not20 = icmp eq ptr %20, null
  br i1 %.not20, label %Py_DECREF.exit, label %21

21:                                               ; preds = %17
  store ptr null, ptr %19, align 8, !tbaa !107
  %22 = load i32, ptr %20, align 8, !tbaa !23
  %.not.i = icmp sgt i32 %22, -1
  br i1 %.not.i, label %23, label %Py_DECREF.exit

23:                                               ; preds = %21
  %24 = add nsw i32 %22, -1
  store i32 %24, ptr %20, align 8, !tbaa !23
  %25 = icmp eq i32 %24, 0
  br i1 %25, label %26, label %Py_DECREF.exit

26:                                               ; preds = %23
  tail call void @_Py_Dealloc(ptr noundef nonnull %20) #17
  br label %Py_DECREF.exit

Py_DECREF.exit:                                   ; preds = %26, %23, %21, %17
  ret i32 0
}